target datalayout = "e-m:e-p270:32:32-p271:32:32-p272:64:64-i64:64-i128:128-f80:128-n8:16:32:64-S128"
target triple = "x86_64-pc-linux-gnu"

%"class.std::__shared_count" = type { ptr }
%"class.std::basic_string_view" = type { i64, ptr }
%"struct.cmDefinitions::Def" = type { %"class.cm::String" }
%"class.cm::String" = type { %"class.std::shared_ptr", %"class.std::basic_string_view" }
%"class.std::shared_ptr" = type { %"class.std::__shared_ptr" }
%"class.std::__shared_ptr" = type { ptr, %"class.std::__shared_count" }
%"class.cmLinkedTree<cmDefinitions>::iterator" = type { ptr, i64 }
%class.cmValue = type { ptr }

; Function Attrs: mustprogress nounwind uwtable
define linkonce_odr dso_local noundef ptr @_ZNKSt17basic_string_viewIcSt11char_traitsIcEE4dataEv(ptr noundef nonnull align 8 dereferenceable(16) %0) #1 comdat align 2 {
  %2 = alloca ptr, align 8
  store ptr %0, ptr %2, align 8
  %3 = load ptr, ptr %2, align 8
  %4 = getelementptr inbounds %"class.std::basic_string_view", ptr %3, i32 0, i32 1
  %5 = load ptr, ptr %4, align 8
  ret ptr %5
}

; Function Attrs: mustprogress nounwind uwtable
define linkonce_odr dso_local noundef ptr @_ZNK2cm6String4dataEv(ptr noundef nonnull align 8 dereferenceable(32) %0) #1 comdat align 2 {
  %2 = alloca ptr, align 8
  store ptr %0, ptr %2, align 8
  %3 = load ptr, ptr %2, align 8
  %4 = getelementptr inbounds %"class.cm::String", ptr %3, i32 0, i32 1
  %5 = call noundef ptr @_ZNKSt17basic_string_viewIcSt11char_traitsIcEE4dataEv(ptr noundef nonnull align 8 dereferenceable(16) %4) #2
  ret ptr %5
}

; Function Attrs: mustprogress nounwind uwtable
define linkonce_odr dso_local void @_ZN7cmValueC2EDn(ptr noundef nonnull align 8 dereferenceable(8) %0, ptr %1) unnamed_addr #1 comdat align 2 {
  %3 = alloca ptr, align 8
  %4 = alloca ptr, align 8
  store ptr %0, ptr %3, align 8
  store ptr %1, ptr %4, align 8
  %5 = load ptr, ptr %3, align 8
  %6 = getelementptr inbounds %class.cmValue, ptr %5, i32 0, i32 0
  store ptr null, ptr %6, align 8
  ret void
}

; Function Attrs: mustprogress nounwind uwtable
define linkonce_odr dso_local void @_ZN7cmValueC2EPKNSt7__cxx1112basic_stringIcSt11char_traitsIcESaIcEEE(ptr noundef nonnull align 8 dereferenceable(8) %0, ptr noundef %1) unnamed_addr #1 comdat align 2 {
  %3 = alloca ptr, align 8
  %4 = alloca ptr, align 8
  store ptr %0, ptr %3, align 8
  store ptr %1, ptr %4, align 8
  %5 = load ptr, ptr %3, align 8
  %6 = getelementptr inbounds %class.cmValue, ptr %5, i32 0, i32 0
  %7 = load ptr, ptr %4, align 8
  store ptr %7, ptr %6, align 8
  ret void
}

; Function Attrs: mustprogress nounwind uwtable
define linkonce_odr dso_local noundef zeroext i1 @_ZNK2cm6StringcvbEv(ptr noundef nonnull align 8 dereferenceable(32) %0) #1 comdat align 2 {
  %2 = alloca ptr, align 8
  store ptr %0, ptr %2, align 8
  %3 = load ptr, ptr %2, align 8
  %4 = call noundef ptr @_ZNK2cm6String4dataEv(ptr noundef nonnull align 8 dereferenceable(32) %3) #2
  %5 = icmp ne ptr %4, null
  ret i1 %5
}

; Function Attrs: mustprogress uwtable
define dso_local ptr @_ZN13cmDefinitions3GetERKNSt7__cxx1112basic_stringIcSt11char_traitsIcESaIcEEEN12cmLinkedTreeIS_E8iteratorESA_(ptr noundef nonnull align 8 dereferenceable(32) %0, ptr %1, i64 %2, ptr %3, i64 %4) #3 align 2 {
  %6 = alloca %class.cmValue, align 8
  %7 = alloca %"class.cmLinkedTree<cmDefinitions>::iterator", align 8
  %8 = alloca %"class.cmLinkedTree<cmDefinitions>::iterator", align 8
  %9 = alloca ptr, align 8
  %10 = alloca ptr, align 8
  %11 = alloca %"class.cmLinkedTree<cmDefinitions>::iterator", align 8
  %12 = alloca %"class.cmLinkedTree<cmDefinitions>::iterator", align 8
  %13 = getelementptr inbounds { ptr, i64 }, ptr %7, i32 0, i32 0
  store ptr %1, ptr %13, align 8
  %14 = getelementptr inbounds { ptr, i64 }, ptr %7, i32 0, i32 1
  store i64 %2, ptr %14, align 8
  %15 = getelementptr inbounds { ptr, i64 }, ptr %8, i32 0, i32 0
  store ptr %3, ptr %15, align 8
  %16 = getelementptr inbounds { ptr, i64 }, ptr %8, i32 0, i32 1
  store i64 %4, ptr %16, align 8
  store ptr %0, ptr %9, align 8
  %17 = load ptr, ptr %9, align 8
  call void @llvm.memcpy.p0.p0.i64(ptr align 8 %11, ptr align 8 %7, i64 16, i1 false)
  call void @llvm.memcpy.p0.p0.i64(ptr align 8 %12, ptr align 8 %8, i64 16, i1 false)
  %18 = getelementptr inbounds { ptr, i64 }, ptr %11, i32 0, i32 0
  %19 = load ptr, ptr %18, align 8
  %20 = getelementptr inbounds { ptr, i64 }, ptr %11, i32 0, i32 1
  %21 = load i64, ptr %20, align 8
  %22 = getelementptr inbounds { ptr, i64 }, ptr %12, i32 0, i32 0
  %23 = load ptr, ptr %22, align 8
  %24 = getelementptr inbounds { ptr, i64 }, ptr %12, i32 0, i32 1
  %25 = load i64, ptr %24, align 8
  %26 = call noundef nonnull align 8 dereferenceable(32) ptr @_ZN13cmDefinitions11GetInternalERKNSt7__cxx1112basic_stringIcSt11char_traitsIcESaIcEEEN12cmLinkedTreeIS_E8iteratorESA_b(ptr noundef nonnull align 8 dereferenceable(32) %17, ptr %19, i64 %21, ptr %23, i64 %25, i1 noundef zeroext false)
  store ptr %26, ptr %10, align 8
  %27 = load ptr, ptr %10, align 8
  %28 = getelementptr inbounds %"struct.cmDefinitions::Def", ptr %27, i32 0, i32 0
  %29 = call noundef zeroext i1 @_ZNK2cm6StringcvbEv(ptr noundef nonnull align 8 dereferenceable(32) %28) #2
  br i1 %29, label %30, label %34

30:                                               ; preds = %5
  %31 = load ptr, ptr %10, align 8
  %32 = getelementptr inbounds %"struct.cmDefinitions::Def", ptr %31, i32 0, i32 0
  %33 = call noundef ptr @_ZNK2cm6String13str_if_stableB5cxx11Ev(ptr noundef nonnull align 8 dereferenceable(32) %32)
  call void @_ZN7cmValueC2EPKNSt7__cxx1112basic_stringIcSt11char_traitsIcESaIcEEE(ptr noundef nonnull align 8 dereferenceable(8) %6, ptr noundef %33) #2
  br label %35

34:                                               ; preds = %5
  call void @_ZN7cmValueC2EDn(ptr noundef nonnull align 8 dereferenceable(8) %6, ptr null) #2
  br label %35

35:                                               ; preds = %34, %30
  %36 = getelementptr inbounds %class.cmValue, ptr %6, i32 0, i32 0
  %37 = load ptr, ptr %36, align 8
  ret ptr %37
}