; Function Attrs: mustprogress uwtable
define dso_local noundef ptr @_ZN13cmDefinitions3GetERKNSt7__cxx1112basic_stringIcSt11char_traitsIcESaIcEEEN12cmLinkedTreeIS_E8iteratorESA_(ptr noundef nonnull align 8 dereferenceable(32) %0, ptr readonly captures(none) %1, i64 %2, ptr readnone captures(none) %3, i64 %4) local_unnamed_addr #2 align 2 {
  %6 = tail call noundef nonnull align 8 dereferenceable(32) ptr @_ZN13cmDefinitions11GetInternalERKNSt7__cxx1112basic_stringIcSt11char_traitsIcESaIcEEEN12cmLinkedTreeIS_E8iteratorESA_b(ptr noundef nonnull align 8 dereferenceable(32) %0, ptr %1, i64 %2, ptr %3, i64 %4, i1 noundef zeroext false)
  %7 = getelementptr inbounds nuw i8, ptr %6, i64 24
  %8 = load ptr, ptr %7, align 8
  %.not = icmp eq ptr %8, null
  br i1 %.not, label %11, label %9

9:                                                ; preds = %5
  %10 = tail call noundef ptr @_ZNK2cm6String13str_if_stableB5cxx11Ev(ptr noundef nonnull align 8 dereferenceable(32) %6)
  br label %11

11:                                               ; preds = %5, %9
  %.sroa.0.0 = phi ptr [ %10, %9 ], [ null, %5 ]
  ret ptr %.sroa.0.0
}